target datalayout = "e-m:e-p270:32:32-p271:32:32-p272:64:64-i64:64-i128:128-f80:128-n8:16:32:64-S128"
target triple = "x86_64-pc-linux-gnu"

; Function Attrs: mustprogress uwtable
define void @_ZN11ImageViewer15adjustScrollBarEP10QScrollBard(ptr noundef nonnull align 8 dereferenceable(160) %0, ptr noundef %1, double noundef %2) #0 align 2 {
  %4 = alloca ptr, align 8
  %5 = alloca ptr, align 8
  %6 = alloca double, align 8
  store ptr %0, ptr %4, align 8, !tbaa !3
  store ptr %1, ptr %5, align 8, !tbaa !88
  store double %2, ptr %6, align 8, !tbaa !69
  %7 = load ptr, ptr %5, align 8, !tbaa !88
  %8 = load double, ptr %6, align 8, !tbaa !69
  %9 = load ptr, ptr %5, align 8, !tbaa !88
  %10 = call noundef i32 @_ZNK15QAbstractSlider5valueEv(ptr noundef nonnull align 8 dereferenceable(40) %9)
  %11 = sitofp i32 %10 to double
  %12 = load double, ptr %6, align 8, !tbaa !69
  %13 = fsub double %12, 1.000000e+00
  %14 = load ptr, ptr %5, align 8, !tbaa !88
  %15 = call noundef i32 @_ZNK15QAbstractSlider8pageStepEv(ptr noundef nonnull align 8 dereferenceable(40) %14)
  %16 = sitofp i32 %15 to double
  %17 = fmul double %13, %16
  %18 = fdiv double %17, 2.000000e+00
  %19 = call double @llvm.fmuladd.f64(double %8, double %11, double %18)
  %20 = fptosi double %19 to i32
  call void @_ZN15QAbstractSlider8setValueEi(ptr noundef nonnull align 8 dereferenceable(40) %7, i32 noundef %20)
  ret void
}