; Function Attrs: mustprogress uwtable
define void @_ZN11ImageViewer15adjustScrollBarEP10QScrollBard(ptr noundef nonnull readnone align 8 captures(none) dereferenceable(160) %0, ptr noundef nonnull %1, double noundef %2) local_unnamed_addr #0 align 2 {
  %4 = tail call noundef i32 @_ZNK15QAbstractSlider5valueEv(ptr noundef nonnull align 8 dereferenceable(40) %1)
  %5 = sitofp i32 %4 to double
  %6 = fadd double %2, -1.000000e+00
  %7 = tail call noundef i32 @_ZNK15QAbstractSlider8pageStepEv(ptr noundef nonnull align 8 dereferenceable(40) %1)
  %8 = sitofp i32 %7 to double
  %9 = fmul double %6, %8
  %10 = fmul double %9, 5.000000e-01
  %11 = tail call double @llvm.fmuladd.f64(double %2, double %5, double %10)
  %12 = fptosi double %11 to i32
  tail call void @_ZN15QAbstractSlider8setValueEi(ptr noundef nonnull align 8 dereferenceable(40) %1, i32 noundef %12)
  ret void
}